; Function Attrs: mustprogress nounwind uwtable
define hidden void @_ZN10Node_Array4growEj(ptr nocapture noundef nonnull align 8 dereferenceable(24) %0, i32 noundef %1) local_unnamed_addr #0 align 2 {
  %3 = getelementptr inbounds i8, ptr %0, i64 8
  %4 = load i32, ptr %3, align 8
  %5 = add i32 %1, 1
  %6 = tail call range(i32 0, 33) i32 @llvm.ctpop.i32(i32 %5)
  %or.cond.i.i = icmp eq i32 %6, 1
  %7 = tail call range(i32 0, 33) i32 @llvm.ctlz.i32(i32 %5, i1 true)
  %8 = sub nuw nsw i32 32, %7
  %9 = shl nuw i32 1, %8
  %.0.i.i = select i1 %or.cond.i.i, i32 %5, i32 %9
  store i32 %.0.i.i, ptr %3, align 8
  %10 = load ptr, ptr %0, align 8
  %11 = getelementptr inbounds i8, ptr %0, i64 16
  %12 = load ptr, ptr %11, align 8
  %13 = zext i32 %4 to i64
  %14 = shl nuw nsw i64 %13, 3
  %15 = zext i32 %.0.i.i to i64
  %16 = shl nuw nsw i64 %15, 3
  %17 = tail call noundef ptr @_ZN5Arena8AreallocEPvmmN17AllocFailStrategy13AllocFailEnumE(ptr noundef nonnull align 8 dereferenceable(48) %10, ptr noundef %12, i64 noundef %14, i64 noundef %16, i32 noundef 0) #15
  store ptr %17, ptr %11, align 8
  %18 = getelementptr inbounds ptr, ptr %17, i64 %13
  %19 = load i32, ptr %3, align 8
  %20 = sub i32 %19, %4
  %21 = zext i32 %20 to i64
  %22 = shl nuw nsw i64 %21, 3
  tail call void @llvm.memset.p0.i64(ptr align 1 %18, i8 0, i64 %22, i1 false)
  ret void
}